target datalayout = "e-m:e-p270:32:32-p271:32:32-p272:64:64-i64:64-i128:128-f80:128-n8:16:32:64-S128"
target triple = "x86_64-pc-linux-gnu"

%"class.cv::Mat" = type { i32, i32, i32, i32, ptr, ptr, ptr, ptr, ptr, ptr, %"struct.cv::MatSize", %"struct.cv::MatStep" }
%"struct.cv::MatSize" = type { ptr }
%"struct.cv::MatStep" = type { ptr, [2 x i64] }

; Function Attrs: inlinehint mustprogress nounwind uwtable
define linkonce_odr hidden void @_ZN2cv7MatStepC2Ev(ptr noundef nonnull align 8 dereferenceable(24) %0) unnamed_addr #6 comdat align 2 {
  %2 = alloca ptr, align 8
  store ptr %0, ptr %2, align 8, !tbaa !83
  %3 = load ptr, ptr %2, align 8
  %4 = getelementptr inbounds nuw %"struct.cv::MatStep", ptr %3, i32 0, i32 1
  %5 = getelementptr inbounds [2 x i64], ptr %4, i64 0, i64 0
  %6 = getelementptr inbounds nuw %"struct.cv::MatStep", ptr %3, i32 0, i32 0
  store ptr %5, ptr %6, align 8, !tbaa !85
  %7 = getelementptr inbounds nuw %"struct.cv::MatStep", ptr %3, i32 0, i32 0
  %8 = load ptr, ptr %7, align 8, !tbaa !85
  %9 = getelementptr inbounds i64, ptr %8, i64 1
  store i64 0, ptr %9, align 8, !tbaa !31
  %10 = getelementptr inbounds nuw %"struct.cv::MatStep", ptr %3, i32 0, i32 0
  %11 = load ptr, ptr %10, align 8, !tbaa !85
  %12 = getelementptr inbounds i64, ptr %11, i64 0
  store i64 0, ptr %12, align 8, !tbaa !31
  ret void
}

; Function Attrs: inlinehint mustprogress nounwind uwtable
define linkonce_odr hidden void @_ZN2cv7MatSizeC2EPi(ptr noundef nonnull align 8 dereferenceable(8) %0, ptr noundef %1) unnamed_addr #6 comdat align 2 {
  %3 = alloca ptr, align 8
  %4 = alloca ptr, align 8
  store ptr %0, ptr %3, align 8, !tbaa !65
  store ptr %1, ptr %4, align 8, !tbaa !71
  %5 = load ptr, ptr %3, align 8
  %6 = getelementptr inbounds nuw %"struct.cv::MatSize", ptr %5, i32 0, i32 0
  %7 = load ptr, ptr %4, align 8, !tbaa !71
  store ptr %7, ptr %6, align 8, !tbaa !67
  ret void
}

; Function Attrs: mustprogress uwtable
define void @_ZN2cv3MatC2EiPKiiPvPKm(ptr noundef nonnull align 8 dereferenceable(96) %0, i32 noundef %1, ptr noundef %2, i32 noundef %3, ptr noundef %4, ptr noundef %5) unnamed_addr #1 align 2 {
  %7 = alloca ptr, align 8
  %8 = alloca i32, align 4
  %9 = alloca ptr, align 8
  %10 = alloca i32, align 4
  %11 = alloca ptr, align 8
  %12 = alloca ptr, align 8
  store ptr %0, ptr %7, align 8, !tbaa !34
  store i32 %1, ptr %8, align 4, !tbaa !26
  store ptr %2, ptr %9, align 8, !tbaa !71
  store i32 %3, ptr %10, align 4, !tbaa !26
  store ptr %4, ptr %11, align 8, !tbaa !25
  store ptr %5, ptr %12, align 8, !tbaa !27
  %13 = load ptr, ptr %7, align 8
  %14 = getelementptr inbounds nuw %"class.cv::Mat", ptr %13, i32 0, i32 0
  store i32 1124007936, ptr %14, align 8, !tbaa !79
  %15 = getelementptr inbounds nuw %"class.cv::Mat", ptr %13, i32 0, i32 1
  store i32 0, ptr %15, align 4, !tbaa !72
  %16 = getelementptr inbounds nuw %"class.cv::Mat", ptr %13, i32 0, i32 2
  store i32 0, ptr %16, align 8, !tbaa !78
  %17 = getelementptr inbounds nuw %"class.cv::Mat", ptr %13, i32 0, i32 3
  store i32 0, ptr %17, align 4, !tbaa !77
  %18 = getelementptr inbounds nuw %"class.cv::Mat", ptr %13, i32 0, i32 4
  store ptr null, ptr %18, align 8, !tbaa !89
  %19 = getelementptr inbounds nuw %"class.cv::Mat", ptr %13, i32 0, i32 5
  store ptr null, ptr %19, align 8, !tbaa !90
  %20 = getelementptr inbounds nuw %"class.cv::Mat", ptr %13, i32 0, i32 6
  store ptr null, ptr %20, align 8, !tbaa !92
  %21 = getelementptr inbounds nuw %"class.cv::Mat", ptr %13, i32 0, i32 7
  store ptr null, ptr %21, align 8, !tbaa !91
  %22 = getelementptr inbounds nuw %"class.cv::Mat", ptr %13, i32 0, i32 8
  store ptr null, ptr %22, align 8, !tbaa !94
  %23 = getelementptr inbounds nuw %"class.cv::Mat", ptr %13, i32 0, i32 9
  store ptr null, ptr %23, align 8, !tbaa !88
  %24 = getelementptr inbounds nuw %"class.cv::Mat", ptr %13, i32 0, i32 10
  %25 = getelementptr inbounds nuw %"class.cv::Mat", ptr %13, i32 0, i32 2
  call void @_ZN2cv7MatSizeC2EPi(ptr noundef nonnull align 8 dereferenceable(8) %24, ptr noundef %25) #7
  %26 = getelementptr inbounds nuw %"class.cv::Mat", ptr %13, i32 0, i32 11
  call void @_ZN2cv7MatStepC2Ev(ptr noundef nonnull align 8 dereferenceable(24) %26) #7
  %27 = load i32, ptr %10, align 4, !tbaa !26
  %28 = and i32 %27, 4095
  %29 = getelementptr inbounds nuw %"class.cv::Mat", ptr %13, i32 0, i32 0
  %30 = load i32, ptr %29, align 8, !tbaa !79
  %31 = or i32 %30, %28
  store i32 %31, ptr %29, align 8, !tbaa !79
  %32 = load ptr, ptr %11, align 8, !tbaa !25
  %33 = getelementptr inbounds nuw %"class.cv::Mat", ptr %13, i32 0, i32 4
  store ptr %32, ptr %33, align 8, !tbaa !89
  %34 = getelementptr inbounds nuw %"class.cv::Mat", ptr %13, i32 0, i32 5
  store ptr %32, ptr %34, align 8, !tbaa !90
  %35 = load i32, ptr %8, align 4, !tbaa !26
  %36 = load ptr, ptr %9, align 8, !tbaa !71
  %37 = load ptr, ptr %12, align 8, !tbaa !27
  call void @_ZN2cv7setSizeERNS_3MatEiPKiPKmb(ptr noundef nonnull align 8 dereferenceable(96) %13, i32 noundef %35, ptr noundef %36, ptr noundef %37, i1 noundef zeroext true)
  call void @_ZN2cv11finalizeHdrERNS_3MatE(ptr noundef nonnull align 8 dereferenceable(96) %13)
  ret void
}