; Function Attrs: mustprogress uwtable
define void @_ZN2cv3MatC2EiPKiiPvPKm(ptr noundef nonnull align 8 dereferenceable(96) initializes((4, 64)) %0, i32 noundef %1, ptr noundef %2, i32 noundef %3, ptr noundef %4, ptr noundef %5) unnamed_addr #1 align 2 {
  %7 = getelementptr inbounds nuw i8, ptr %0, i64 4
  %8 = getelementptr inbounds nuw i8, ptr %0, i64 8
  %9 = getelementptr inbounds nuw i8, ptr %0, i64 16
  %10 = getelementptr inbounds nuw i8, ptr %0, i64 24
  %11 = getelementptr inbounds nuw i8, ptr %0, i64 64
  tail call void @llvm.memset.p0.i64(ptr noundef nonnull align 4 dereferenceable(60) %7, i8 0, i64 60, i1 false)
  store ptr %8, ptr %11, align 8, !tbaa !49
  %12 = getelementptr inbounds nuw i8, ptr %0, i64 72
  %13 = getelementptr inbounds nuw i8, ptr %0, i64 80
  store ptr %13, ptr %12, align 8, !tbaa !63
  tail call void @llvm.memset.p0.i64(ptr noundef nonnull align 8 dereferenceable(16) %13, i8 0, i64 16, i1 false)
  %14 = and i32 %3, 4095
  %15 = or disjoint i32 %14, 1124007936
  store i32 %15, ptr %0, align 8, !tbaa !61
  store ptr %4, ptr %9, align 8, !tbaa !67
  store ptr %4, ptr %10, align 8, !tbaa !68
  tail call void @_ZN2cv7setSizeERNS_3MatEiPKiPKmb(ptr noundef nonnull align 8 dereferenceable(96) %0, i32 noundef %1, ptr noundef %2, ptr noundef %5, i1 noundef zeroext true)
  tail call void @_ZN2cv11finalizeHdrERNS_3MatE(ptr noundef nonnull align 8 dereferenceable(96) %0)
  ret void
}